; Function Attrs: nounwind uwtable
define internal fastcc i64 @readNumber(ptr nocapture noundef readonly %0, ptr nocapture noundef %1, i32 noundef %2, ptr nocapture noundef writeonly %3) unnamed_addr #0 {
  %5 = load i32, ptr %1, align 4
  %6 = zext i32 %5 to i64
  %7 = getelementptr inbounds i8, ptr %0, i64 %6
  %8 = load i8, ptr %7, align 1
  %9 = zext i8 %8 to i32
  %10 = add nsw i32 %9, -96
  %11 = icmp ugt i32 %10, 16
  br i1 %11, label %12, label %13

12:                                               ; preds = %4
  tail call void (ptr, ...) @cli_errmsg(ptr noundef nonnull @.str.278, i32 noundef %9) #25
  store i8 0, ptr %3, align 1
  br label %35

13:                                               ; preds = %4
  %14 = add i32 %5, 1
  %15 = add i32 %14, %10
  %16 = icmp ugt i32 %15, %2
  br i1 %16, label %17, label %18

17:                                               ; preds = %13
  tail call void (ptr, ...) @cli_errmsg(ptr noundef nonnull @.str.279) #25
  store i8 0, ptr %3, align 1
  br label %35

18:                                               ; preds = %13
  %19 = icmp eq i8 %8, 96
  br i1 %19, label %21, label %.preheader

.preheader:                                       ; preds = %18
  %20 = icmp ult i32 %14, %15
  br i1 %20, label %.lr.ph, label %._crit_edge

21:                                               ; preds = %18
  store i32 %15, ptr %1, align 4
  br label %35

.lr.ph:                                           ; preds = %.preheader, %29
  %.03441 = phi i32 [ %.034, %29 ], [ %14, %.preheader ]
  %.040 = phi i32 [ %34, %29 ], [ 0, %.preheader ]
  %.03339 = phi i64 [ %33, %29 ], [ 0, %.preheader ]
  %22 = zext i32 %.03441 to i64
  %23 = getelementptr inbounds i8, ptr %0, i64 %22
  %24 = load i8, ptr %23, align 1
  %25 = zext i8 %24 to i64
  %26 = and i64 %25, 240
  %.not = icmp eq i64 %26, 96
  br i1 %.not, label %29, label %27

27:                                               ; preds = %.lr.ph
  %28 = sext i8 %24 to i32
  tail call void (ptr, ...) @cli_errmsg(ptr noundef nonnull @.str.280, i32 noundef %28) #25
  store i8 0, ptr %3, align 1
  br label %35

29:                                               ; preds = %.lr.ph
  %30 = and i64 %25, 15
  %31 = zext nneg i32 %.040 to i64
  %32 = shl i64 %30, %31
  %33 = or i64 %32, %.03339
  %34 = add i32 %.040, 4
  %.034 = add nuw i32 %.03441, 1
  %exitcond.not = icmp eq i32 %.034, %15
  br i1 %exitcond.not, label %._crit_edge, label %.lr.ph

._crit_edge:                                      ; preds = %29, %.preheader
  %.033.lcssa = phi i64 [ 0, %.preheader ], [ %33, %29 ]
  store i32 %15, ptr %1, align 4
  br label %35

35:                                               ; preds = %._crit_edge, %27, %21, %17, %12
  %.032 = phi i64 [ 0, %12 ], [ 0, %17 ], [ 0, %21 ], [ 0, %27 ], [ %.033.lcssa, %._crit_edge ]
  ret i64 %.032
}